target datalayout = "e-m:e-p270:32:32-p271:32:32-p272:64:64-i64:64-i128:128-f80:128-n8:16:32:64-S128"
target triple = "x86_64-pc-linux-gnu"

%struct._packet_info = type { ptr, ptr, i32, i32, %struct.nstime_t, %struct.nstime_t, %struct.nstime_t, i8, ptr, ptr, ptr, ptr, %struct._address, %struct._address, %struct._address, %struct._address, %struct._address, %struct._address, i32, ptr, i8, [3 x i8], %struct.anon, i32, i32, i32, i32, ptr, i8, ptr, ptr, i16, i16, i32, i32, i16, i32, i32, ptr, ptr, ptr, i8, i8, i16, i16, i16, i32, i16, i16, ptr, ptr, ptr, ptr, ptr, i32, i32 }
%struct.nstime_t = type { i64, i32 }
%struct._address = type { i32, i32, ptr, ptr }
%struct.anon = type { i8, [3 x i8] }
%struct._asn1_ctx_t = type { i32, i32, i8, ptr, ptr, ptr, ptr, ptr, %struct.anon.0, %struct.anon.3, %struct.anon.4, ptr }
%struct.anon.0 = type { i32, i8, i8, i8, ptr, ptr, i32, i32, ptr, ptr, ptr, %union.anon }
%union.anon = type { %struct.anon.1 }
%struct.anon.1 = type { ptr }
%struct.anon.3 = type { ptr, ptr, ptr }
%struct.anon.4 = type { i32, i8, ptr, i32, i32, ptr, ptr, ptr, %union.anon.5 }
%union.anon.5 = type { %struct.anon.6 }
%struct.anon.6 = type { ptr }

@.str.93 = private unnamed_addr constant [4 x i8] c" %s\00", align 1
@.str.95 = private unnamed_addr constant [18 x i8] c"InvokeProblem(%d)\00", align 1

; Function Attrs: null_pointer_is_valid sspstrong uwtable
define internal i32 @dissect_ros_InvokeProblem(i1 noundef zeroext %0, ptr noundef %1, i32 noundef %2, ptr noundef %3, ptr noundef %4, i32 noundef %5) #0 {
  %7 = alloca i8, align 1
  %8 = alloca ptr, align 8
  %9 = alloca i32, align 4
  %10 = alloca ptr, align 8
  %11 = alloca ptr, align 8
  %12 = alloca i32, align 4
  %13 = alloca i32, align 4
  %14 = zext i1 %0 to i8
  store i8 %14, ptr %7, align 1
  store ptr %1, ptr %8, align 8
  store i32 %2, ptr %9, align 4
  store ptr %3, ptr %10, align 8
  store ptr %4, ptr %11, align 8
  store i32 %5, ptr %12, align 4
  call void @llvm.lifetime.start.p0(i64 4, ptr %13) #7
  %15 = load i8, ptr %7, align 1, !range !6, !noundef !7
  %16 = trunc i8 %15 to i1
  %17 = load ptr, ptr %10, align 8
  %18 = load ptr, ptr %11, align 8
  %19 = load ptr, ptr %8, align 8
  %20 = load i32, ptr %9, align 4
  %21 = load i32, ptr %12, align 4
  %22 = call i32 @dissect_ber_integer(i1 noundef zeroext %16, ptr noundef %17, ptr noundef %18, ptr noundef %19, i32 noundef %20, i32 noundef %21, ptr noundef %13)
  store i32 %22, ptr %9, align 4
  %23 = load ptr, ptr %10, align 8
  %24 = getelementptr inbounds nuw %struct._asn1_ctx_t, ptr %23, i32 0, i32 3
  %25 = load ptr, ptr %24, align 8
  %26 = getelementptr inbounds nuw %struct._packet_info, ptr %25, i32 0, i32 1
  %27 = load ptr, ptr %26, align 8
  %28 = load i32, ptr %13, align 4
  %29 = call ptr @val_to_str(i32 noundef %28, ptr noundef @ros_InvokeProblem_vals, ptr noundef @.str.95)
  call void (ptr, i32, ptr, ...) @col_append_fstr(ptr noundef %27, i32 noundef 25, ptr noundef @.str.93, ptr noundef %29)
  %30 = load i32, ptr %9, align 4
  call void @llvm.lifetime.end.p0(i64 4, ptr %13) #7
  ret i32 %30
}